target datalayout = "e-m:e-p270:32:32-p271:32:32-p272:64:64-i64:64-i128:128-f80:128-n8:16:32:64-S128"
target triple = "x86_64-pc-linux-gnu"

%struct.mbedtls_cipher_info_t = type { ptr, i32 }
%struct.mbedtls_cipher_context_t = type { ptr, i32, i32, ptr, ptr, [16 x i8], i64, [16 x i8], i64, ptr, ptr }

; Function Attrs: inlinehint nounwind uwtable
define internal i64 @mbedtls_cipher_info_get_iv_size(ptr noundef %0) #3 {
  %2 = alloca i64, align 8
  %3 = alloca ptr, align 8
  store ptr %0, ptr %3, align 8, !tbaa !26
  %4 = load ptr, ptr %3, align 8, !tbaa !26
  %5 = icmp eq ptr %4, null
  br i1 %5, label %6, label %7

6:                                                ; preds = %1
  store i64 0, ptr %2, align 8
  br label %15

7:                                                ; preds = %1
  %8 = load ptr, ptr %3, align 8, !tbaa !26
  %9 = getelementptr inbounds nuw %struct.mbedtls_cipher_info_t, ptr %8, i32 0, i32 1
  %10 = load i32, ptr %9, align 8
  %11 = lshr i32 %10, 5
  %12 = and i32 %11, 7
  %13 = zext i32 %12 to i64
  %14 = shl i64 %13, 2
  store i64 %14, ptr %2, align 8
  br label %15

15:                                               ; preds = %7, %6
  %16 = load i64, ptr %2, align 8
  ret i64 %16
}

; Function Attrs: nounwind uwtable
define internal i32 @mbedtls_cipher_aead_decrypt(ptr noundef %0, ptr noundef %1, i64 noundef %2, ptr noundef %3, i64 noundef %4, ptr noundef %5, i64 noundef %6, ptr noundef %7, ptr noundef %8, ptr noundef %9, i64 noundef %10) #0 {
  %12 = alloca i32, align 4
  %13 = alloca ptr, align 8
  %14 = alloca ptr, align 8
  %15 = alloca i64, align 8
  %16 = alloca ptr, align 8
  %17 = alloca i64, align 8
  %18 = alloca ptr, align 8
  %19 = alloca i64, align 8
  %20 = alloca ptr, align 8
  %21 = alloca ptr, align 8
  %22 = alloca ptr, align 8
  %23 = alloca i64, align 8
  %24 = alloca i32, align 4
  %25 = alloca i32, align 4
  %26 = alloca i32, align 4
  %27 = alloca i32, align 4
  store ptr %0, ptr %13, align 8, !tbaa !29
  store ptr %1, ptr %14, align 8, !tbaa !18
  store i64 %2, ptr %15, align 8, !tbaa !43
  store ptr %3, ptr %16, align 8, !tbaa !18
  store i64 %4, ptr %17, align 8, !tbaa !43
  store ptr %5, ptr %18, align 8, !tbaa !18
  store i64 %6, ptr %19, align 8, !tbaa !43
  store ptr %7, ptr %20, align 8, !tbaa !18
  store ptr %8, ptr %21, align 8, !tbaa !46
  store ptr %9, ptr %22, align 8, !tbaa !18
  store i64 %10, ptr %23, align 8, !tbaa !43
  %28 = load ptr, ptr %13, align 8, !tbaa !29
  %29 = getelementptr inbounds nuw %struct.mbedtls_cipher_context_t, ptr %28, i32 0, i32 0
  %30 = load ptr, ptr %29, align 8, !tbaa !36
  %31 = getelementptr inbounds nuw %struct.mbedtls_cipher_info_t, ptr %30, i32 0, i32 1
  %32 = load i32, ptr %31, align 8
  %33 = lshr i32 %32, 12
  %34 = and i32 %33, 15
  %35 = icmp eq i32 6, %34
  br i1 %35, label %36, label %57

36:                                               ; preds = %11
  call void @llvm.lifetime.start.p0(i64 4, ptr %24) #7
  store i32 -110, ptr %24, align 4, !tbaa !3
  %37 = load i64, ptr %19, align 8, !tbaa !43
  %38 = load ptr, ptr %21, align 8, !tbaa !46
  store i64 %37, ptr %38, align 8, !tbaa !43
  %39 = load ptr, ptr %13, align 8, !tbaa !29
  %40 = getelementptr inbounds nuw %struct.mbedtls_cipher_context_t, ptr %39, i32 0, i32 9
  %41 = load ptr, ptr %40, align 8, !tbaa !35
  %42 = load i64, ptr %19, align 8, !tbaa !43
  %43 = load ptr, ptr %14, align 8, !tbaa !18
  %44 = load i64, ptr %15, align 8, !tbaa !43
  %45 = load ptr, ptr %16, align 8, !tbaa !18
  %46 = load i64, ptr %17, align 8, !tbaa !43
  %47 = load ptr, ptr %22, align 8, !tbaa !18
  %48 = load i64, ptr %23, align 8, !tbaa !43
  %49 = load ptr, ptr %18, align 8, !tbaa !18
  %50 = load ptr, ptr %20, align 8, !tbaa !18
  %51 = call i32 @mbedtls_gcm_auth_decrypt(ptr noundef %41, i64 noundef %42, ptr noundef %43, i64 noundef %44, ptr noundef %45, i64 noundef %46, ptr noundef %47, i64 noundef %48, ptr noundef %49, ptr noundef %50)
  store i32 %51, ptr %24, align 4, !tbaa !3
  %52 = load i32, ptr %24, align 4, !tbaa !3
  %53 = icmp eq i32 %52, -18
  br i1 %53, label %54, label %55

54:                                               ; preds = %36
  store i32 -25344, ptr %24, align 4, !tbaa !3
  br label %55

55:                                               ; preds = %54, %36
  %56 = load i32, ptr %24, align 4, !tbaa !3
  store i32 %56, ptr %12, align 4
  call void @llvm.lifetime.end.p0(i64 4, ptr %24) #7
  br label %128

57:                                               ; preds = %11
  %58 = load ptr, ptr %13, align 8, !tbaa !29
  %59 = getelementptr inbounds nuw %struct.mbedtls_cipher_context_t, ptr %58, i32 0, i32 0
  %60 = load ptr, ptr %59, align 8, !tbaa !36
  %61 = getelementptr inbounds nuw %struct.mbedtls_cipher_info_t, ptr %60, i32 0, i32 1
  %62 = load i32, ptr %61, align 8
  %63 = lshr i32 %62, 12
  %64 = and i32 %63, 15
  %65 = icmp eq i32 8, %64
  br i1 %65, label %66, label %87

66:                                               ; preds = %57
  call void @llvm.lifetime.start.p0(i64 4, ptr %25) #7
  store i32 -110, ptr %25, align 4, !tbaa !3
  %67 = load i64, ptr %19, align 8, !tbaa !43
  %68 = load ptr, ptr %21, align 8, !tbaa !46
  store i64 %67, ptr %68, align 8, !tbaa !43
  %69 = load ptr, ptr %13, align 8, !tbaa !29
  %70 = getelementptr inbounds nuw %struct.mbedtls_cipher_context_t, ptr %69, i32 0, i32 9
  %71 = load ptr, ptr %70, align 8, !tbaa !35
  %72 = load i64, ptr %19, align 8, !tbaa !43
  %73 = load ptr, ptr %14, align 8, !tbaa !18
  %74 = load i64, ptr %15, align 8, !tbaa !43
  %75 = load ptr, ptr %16, align 8, !tbaa !18
  %76 = load i64, ptr %17, align 8, !tbaa !43
  %77 = load ptr, ptr %18, align 8, !tbaa !18
  %78 = load ptr, ptr %20, align 8, !tbaa !18
  %79 = load ptr, ptr %22, align 8, !tbaa !18
  %80 = load i64, ptr %23, align 8, !tbaa !43
  %81 = call i32 @mbedtls_ccm_auth_decrypt(ptr noundef %71, i64 noundef %72, ptr noundef %73, i64 noundef %74, ptr noundef %75, i64 noundef %76, ptr noundef %77, ptr noundef %78, ptr noundef %79, i64 noundef %80)
  store i32 %81, ptr %25, align 4, !tbaa !3
  %82 = load i32, ptr %25, align 4, !tbaa !3
  %83 = icmp eq i32 %82, -15
  br i1 %83, label %84, label %85

84:                                               ; preds = %66
  store i32 -25344, ptr %25, align 4, !tbaa !3
  br label %85

85:                                               ; preds = %84, %66
  %86 = load i32, ptr %25, align 4, !tbaa !3
  store i32 %86, ptr %12, align 4
  call void @llvm.lifetime.end.p0(i64 4, ptr %25) #7
  br label %128

87:                                               ; preds = %57
  %88 = load ptr, ptr %13, align 8, !tbaa !29
  %89 = getelementptr inbounds nuw %struct.mbedtls_cipher_context_t, ptr %88, i32 0, i32 0
  %90 = load ptr, ptr %89, align 8, !tbaa !36
  %91 = getelementptr inbounds nuw %struct.mbedtls_cipher_info_t, ptr %90, i32 0, i32 1
  %92 = load i32, ptr %91, align 8
  %93 = lshr i32 %92, 16
  %94 = and i32 %93, 255
  %95 = icmp eq i32 77, %94
  br i1 %95, label %96, label %127

96:                                               ; preds = %87
  call void @llvm.lifetime.start.p0(i64 4, ptr %26) #7
  store i32 -110, ptr %26, align 4, !tbaa !3
  %97 = load i64, ptr %15, align 8, !tbaa !43
  %98 = load ptr, ptr %13, align 8, !tbaa !29
  %99 = getelementptr inbounds nuw %struct.mbedtls_cipher_context_t, ptr %98, i32 0, i32 0
  %100 = load ptr, ptr %99, align 8, !tbaa !36
  %101 = call i64 @mbedtls_cipher_info_get_iv_size(ptr noundef %100)
  %102 = icmp ne i64 %97, %101
  br i1 %102, label %106, label %103

103:                                              ; preds = %96
  %104 = load i64, ptr %23, align 8, !tbaa !43
  %105 = icmp ne i64 %104, 16
  br i1 %105, label %106, label %107

106:                                              ; preds = %103, %96
  store i32 -24832, ptr %12, align 4
  store i32 1, ptr %27, align 4
  br label %126

107:                                              ; preds = %103
  %108 = load i64, ptr %19, align 8, !tbaa !43
  %109 = load ptr, ptr %21, align 8, !tbaa !46
  store i64 %108, ptr %109, align 8, !tbaa !43
  %110 = load ptr, ptr %13, align 8, !tbaa !29
  %111 = getelementptr inbounds nuw %struct.mbedtls_cipher_context_t, ptr %110, i32 0, i32 9
  %112 = load ptr, ptr %111, align 8, !tbaa !35
  %113 = load i64, ptr %19, align 8, !tbaa !43
  %114 = load ptr, ptr %14, align 8, !tbaa !18
  %115 = load ptr, ptr %16, align 8, !tbaa !18
  %116 = load i64, ptr %17, align 8, !tbaa !43
  %117 = load ptr, ptr %22, align 8, !tbaa !18
  %118 = load ptr, ptr %18, align 8, !tbaa !18
  %119 = load ptr, ptr %20, align 8, !tbaa !18
  %120 = call i32 @mbedtls_chachapoly_auth_decrypt(ptr noundef %112, i64 noundef %113, ptr noundef %114, ptr noundef %115, i64 noundef %116, ptr noundef %117, ptr noundef %118, ptr noundef %119)
  store i32 %120, ptr %26, align 4, !tbaa !3
  %121 = load i32, ptr %26, align 4, !tbaa !3
  %122 = icmp eq i32 %121, -86
  br i1 %122, label %123, label %124

123:                                              ; preds = %107
  store i32 -25344, ptr %26, align 4, !tbaa !3
  br label %124

124:                                              ; preds = %123, %107
  %125 = load i32, ptr %26, align 4, !tbaa !3
  store i32 %125, ptr %12, align 4
  store i32 1, ptr %27, align 4
  br label %126

126:                                              ; preds = %124, %106
  call void @llvm.lifetime.end.p0(i64 4, ptr %26) #7
  br label %128

127:                                              ; preds = %87
  store i32 -24704, ptr %12, align 4
  br label %128

128:                                              ; preds = %127, %126, %85, %55
  %129 = load i32, ptr %12, align 4
  ret i32 %129
}

; Function Attrs: nounwind uwtable
define hidden i32 @mbedtls_cipher_auth_decrypt_ext(ptr noundef %0, ptr noundef %1, i64 noundef %2, ptr noundef %3, i64 noundef %4, ptr noundef %5, i64 noundef %6, ptr noundef %7, i64 noundef %8, ptr noundef %9, i64 noundef %10) #0 {
  %12 = alloca i32, align 4
  %13 = alloca ptr, align 8
  %14 = alloca ptr, align 8
  %15 = alloca i64, align 8
  %16 = alloca ptr, align 8
  %17 = alloca i64, align 8
  %18 = alloca ptr, align 8
  %19 = alloca i64, align 8
  %20 = alloca ptr, align 8
  %21 = alloca i64, align 8
  %22 = alloca ptr, align 8
  %23 = alloca i64, align 8
  %24 = alloca i32, align 4
  %25 = alloca i32, align 4
  store ptr %0, ptr %13, align 8, !tbaa !29
  store ptr %1, ptr %14, align 8, !tbaa !18
  store i64 %2, ptr %15, align 8, !tbaa !43
  store ptr %3, ptr %16, align 8, !tbaa !18
  store i64 %4, ptr %17, align 8, !tbaa !43
  store ptr %5, ptr %18, align 8, !tbaa !18
  store i64 %6, ptr %19, align 8, !tbaa !43
  store ptr %7, ptr %20, align 8, !tbaa !18
  store i64 %8, ptr %21, align 8, !tbaa !43
  store ptr %9, ptr %22, align 8, !tbaa !46
  store i64 %10, ptr %23, align 8, !tbaa !43
  %26 = load ptr, ptr %13, align 8, !tbaa !29
  %27 = getelementptr inbounds nuw %struct.mbedtls_cipher_context_t, ptr %26, i32 0, i32 0
  %28 = load ptr, ptr %27, align 8, !tbaa !36
  %29 = getelementptr inbounds nuw %struct.mbedtls_cipher_info_t, ptr %28, i32 0, i32 1
  %30 = load i32, ptr %29, align 8
  %31 = lshr i32 %30, 12
  %32 = and i32 %31, 15
  %33 = icmp eq i32 12, %32
  br i1 %33, label %43, label %34

34:                                               ; preds = %11
  %35 = load ptr, ptr %13, align 8, !tbaa !29
  %36 = getelementptr inbounds nuw %struct.mbedtls_cipher_context_t, ptr %35, i32 0, i32 0
  %37 = load ptr, ptr %36, align 8, !tbaa !36
  %38 = getelementptr inbounds nuw %struct.mbedtls_cipher_info_t, ptr %37, i32 0, i32 1
  %39 = load i32, ptr %38, align 8
  %40 = lshr i32 %39, 12
  %41 = and i32 %40, 15
  %42 = icmp eq i32 13, %41
  br i1 %42, label %43, label %74

43:                                               ; preds = %34, %11
  call void @llvm.lifetime.start.p0(i64 4, ptr %24) #7
  %44 = load ptr, ptr %13, align 8, !tbaa !29
  %45 = getelementptr inbounds nuw %struct.mbedtls_cipher_context_t, ptr %44, i32 0, i32 0
  %46 = load ptr, ptr %45, align 8, !tbaa !36
  %47 = getelementptr inbounds nuw %struct.mbedtls_cipher_info_t, ptr %46, i32 0, i32 1
  %48 = load i32, ptr %47, align 8
  %49 = lshr i32 %48, 12
  %50 = and i32 %49, 15
  %51 = icmp eq i32 12, %50
  %52 = select i1 %51, i32 0, i32 1
  store i32 %52, ptr %24, align 4, !tbaa !3
  %53 = load i64, ptr %15, align 8, !tbaa !43
  %54 = icmp ne i64 %53, 0
  br i1 %54, label %61, label %55

55:                                               ; preds = %43
  %56 = load i64, ptr %23, align 8, !tbaa !43
  %57 = icmp ne i64 %56, 0
  br i1 %57, label %61, label %58

58:                                               ; preds = %55
  %59 = load i64, ptr %17, align 8, !tbaa !43
  %60 = icmp ne i64 %59, 0
  br i1 %60, label %61, label %62

61:                                               ; preds = %58, %55, %43
  store i32 -24832, ptr %12, align 4
  store i32 1, ptr %25, align 4
  br label %73

62:                                               ; preds = %58
  %63 = load ptr, ptr %13, align 8, !tbaa !29
  %64 = getelementptr inbounds nuw %struct.mbedtls_cipher_context_t, ptr %63, i32 0, i32 9
  %65 = load ptr, ptr %64, align 8, !tbaa !35
  %66 = load i32, ptr %24, align 4, !tbaa !3
  %67 = load ptr, ptr %18, align 8, !tbaa !18
  %68 = load i64, ptr %19, align 8, !tbaa !43
  %69 = load ptr, ptr %20, align 8, !tbaa !18
  %70 = load ptr, ptr %22, align 8, !tbaa !46
  %71 = load i64, ptr %21, align 8, !tbaa !43
  %72 = call i32 @mbedtls_nist_kw_unwrap(ptr noundef %65, i32 noundef %66, ptr noundef %67, i64 noundef %68, ptr noundef %69, ptr noundef %70, i64 noundef %71)
  store i32 %72, ptr %12, align 4
  store i32 1, ptr %25, align 4
  br label %73

73:                                               ; preds = %62, %61
  call void @llvm.lifetime.end.p0(i64 4, ptr %24) #7
  br label %105

74:                                               ; preds = %34
  %75 = load i64, ptr %19, align 8, !tbaa !43
  %76 = load i64, ptr %23, align 8, !tbaa !43
  %77 = icmp ult i64 %75, %76
  br i1 %77, label %84, label %78

78:                                               ; preds = %74
  %79 = load i64, ptr %21, align 8, !tbaa !43
  %80 = load i64, ptr %19, align 8, !tbaa !43
  %81 = load i64, ptr %23, align 8, !tbaa !43
  %82 = sub i64 %80, %81
  %83 = icmp ult i64 %79, %82
  br i1 %83, label %84, label %85

84:                                               ; preds = %78, %74
  store i32 -24832, ptr %12, align 4
  br label %105

85:                                               ; preds = %78
  %86 = load ptr, ptr %13, align 8, !tbaa !29
  %87 = load ptr, ptr %14, align 8, !tbaa !18
  %88 = load i64, ptr %15, align 8, !tbaa !43
  %89 = load ptr, ptr %16, align 8, !tbaa !18
  %90 = load i64, ptr %17, align 8, !tbaa !43
  %91 = load ptr, ptr %18, align 8, !tbaa !18
  %92 = load i64, ptr %19, align 8, !tbaa !43
  %93 = load i64, ptr %23, align 8, !tbaa !43
  %94 = sub i64 %92, %93
  %95 = load ptr, ptr %20, align 8, !tbaa !18
  %96 = load ptr, ptr %22, align 8, !tbaa !46
  %97 = load ptr, ptr %18, align 8, !tbaa !18
  %98 = load i64, ptr %19, align 8, !tbaa !43
  %99 = getelementptr inbounds nuw i8, ptr %97, i64 %98
  %100 = load i64, ptr %23, align 8, !tbaa !43
  %101 = sub i64 0, %100
  %102 = getelementptr inbounds i8, ptr %99, i64 %101
  %103 = load i64, ptr %23, align 8, !tbaa !43
  %104 = call i32 @mbedtls_cipher_aead_decrypt(ptr noundef %86, ptr noundef %87, i64 noundef %88, ptr noundef %89, i64 noundef %90, ptr noundef %91, i64 noundef %94, ptr noundef %95, ptr noundef %96, ptr noundef %102, i64 noundef %103)
  store i32 %104, ptr %12, align 4
  br label %105

105:                                              ; preds = %85, %84, %73
  %106 = load i32, ptr %12, align 4
  ret i32 %106
}