; Function Attrs: nounwind uwtable
define hidden i32 @mbedtls_cipher_auth_decrypt_ext(ptr noundef readonly captures(none) %0, ptr noundef %1, i64 noundef %2, ptr noundef %3, i64 noundef %4, ptr noundef %5, i64 noundef %6, ptr noundef %7, i64 noundef %8, ptr noundef %9, i64 noundef %10) local_unnamed_addr #8 {
  %12 = load ptr, ptr %0, align 8, !tbaa !29
  %13 = getelementptr inbounds nuw i8, ptr %12, i64 8
  %14 = load i32, ptr %13, align 8
  %15 = lshr i32 %14, 12
  %16 = and i32 %15, 15
  %17 = and i32 %14, 57344
  %switch = icmp eq i32 %17, 49152
  br i1 %switch, label %18, label %28

18:                                               ; preds = %11
  %19 = or i64 %4, %2
  %20 = or i64 %19, %10
  %or.cond3.not = icmp eq i64 %20, 0
  br i1 %or.cond3.not, label %21, label %mbedtls_cipher_aead_decrypt.exit

21:                                               ; preds = %18
  %22 = and i32 %14, 53248
  %23 = icmp ne i32 %22, 49152
  %24 = zext i1 %23 to i32
  %25 = getelementptr inbounds nuw i8, ptr %0, i64 80
  %26 = load ptr, ptr %25, align 8, !tbaa !28
  %27 = tail call i32 @mbedtls_nist_kw_unwrap(ptr noundef %26, i32 noundef %24, ptr noundef %5, i64 noundef %6, ptr noundef %7, ptr noundef %9, i64 noundef %8) #15
  br label %mbedtls_cipher_aead_decrypt.exit

28:                                               ; preds = %11
  %29 = icmp ult i64 %6, %10
  br i1 %29, label %mbedtls_cipher_aead_decrypt.exit, label %30

30:                                               ; preds = %28
  %31 = sub nuw i64 %6, %10
  %32 = icmp ult i64 %8, %31
  br i1 %32, label %mbedtls_cipher_aead_decrypt.exit, label %33

33:                                               ; preds = %30
  %34 = getelementptr inbounds nuw i8, ptr %5, i64 %6
  %35 = sub i64 0, %10
  %36 = getelementptr inbounds i8, ptr %34, i64 %35
  switch i32 %16, label %47 [
    i32 6, label %37
    i32 8, label %42
  ]

37:                                               ; preds = %33
  store i64 %31, ptr %9, align 8, !tbaa !37
  %38 = getelementptr inbounds nuw i8, ptr %0, i64 80
  %39 = load ptr, ptr %38, align 8, !tbaa !28
  %40 = tail call i32 @mbedtls_gcm_auth_decrypt(ptr noundef %39, i64 noundef %31, ptr noundef %1, i64 noundef %2, ptr noundef %3, i64 noundef %4, ptr noundef %36, i64 noundef %10, ptr noundef %5, ptr noundef %7) #15
  %41 = icmp eq i32 %40, -18
  %spec.store.select.i = select i1 %41, i32 -25344, i32 %40
  br label %mbedtls_cipher_aead_decrypt.exit

42:                                               ; preds = %33
  store i64 %31, ptr %9, align 8, !tbaa !37
  %43 = getelementptr inbounds nuw i8, ptr %0, i64 80
  %44 = load ptr, ptr %43, align 8, !tbaa !28
  %45 = tail call i32 @mbedtls_ccm_auth_decrypt(ptr noundef %44, i64 noundef %31, ptr noundef %1, i64 noundef %2, ptr noundef %3, i64 noundef %4, ptr noundef %5, ptr noundef %7, ptr noundef %36, i64 noundef %10) #15
  %46 = icmp eq i32 %45, -15
  %spec.store.select1.i = select i1 %46, i32 -25344, i32 %45
  br label %mbedtls_cipher_aead_decrypt.exit

47:                                               ; preds = %33
  %48 = and i32 %14, 16711680
  %49 = icmp eq i32 %48, 5046272
  br i1 %49, label %mbedtls_cipher_info_get_iv_size.exit.i, label %mbedtls_cipher_aead_decrypt.exit

mbedtls_cipher_info_get_iv_size.exit.i:           ; preds = %47
  %50 = lshr i32 %14, 3
  %51 = and i32 %50, 28
  %52 = zext nneg i32 %51 to i64
  %53 = icmp ne i64 %2, %52
  %54 = icmp ne i64 %10, 16
  %or.cond.i = or i1 %54, %53
  br i1 %or.cond.i, label %mbedtls_cipher_aead_decrypt.exit, label %55

55:                                               ; preds = %mbedtls_cipher_info_get_iv_size.exit.i
  store i64 %31, ptr %9, align 8, !tbaa !37
  %56 = getelementptr inbounds nuw i8, ptr %0, i64 80
  %57 = load ptr, ptr %56, align 8, !tbaa !28
  %58 = tail call i32 @mbedtls_chachapoly_auth_decrypt(ptr noundef %57, i64 noundef %31, ptr noundef %1, ptr noundef %3, i64 noundef %4, ptr noundef nonnull %36, ptr noundef %5, ptr noundef %7) #15
  %59 = icmp eq i32 %58, -86
  %spec.store.select3.i = select i1 %59, i32 -25344, i32 %58
  br label %mbedtls_cipher_aead_decrypt.exit

mbedtls_cipher_aead_decrypt.exit:                 ; preds = %55, %mbedtls_cipher_info_get_iv_size.exit.i, %47, %42, %37, %28, %30, %21, %18
  %.1 = phi i32 [ %27, %21 ], [ -24832, %18 ], [ -24832, %30 ], [ -24832, %28 ], [ %spec.store.select.i, %37 ], [ %spec.store.select1.i, %42 ], [ %spec.store.select3.i, %55 ], [ -24832, %mbedtls_cipher_info_get_iv_size.exit.i ], [ -24704, %47 ]
  ret i32 %.1
}